; Function Attrs: mustprogress uwtable
define void @_ZN11CMainWindow12slotSettingsEv(ptr noundef nonnull align 8 captures(none) dereferenceable(280) %0) #0 align 2 {
  tail call void @_ZN11CMainWindow8setChildEv(ptr noundef nonnull align 8 dereferenceable(280) %0)
  %2 = getelementptr inbounds nuw i8, ptr %0, i64 232
  %3 = load ptr, ptr %2, align 8, !tbaa !68
  %4 = getelementptr inbounds nuw i8, ptr %0, i64 40
  %5 = load ptr, ptr %4, align 8, !tbaa !48
  %6 = tail call noundef ptr @_ZNK8QMdiArea15activeSubWindowEv(ptr noundef nonnull align 8 dereferenceable(40) %5)
  %.not.not.i = icmp eq ptr %6, null
  br i1 %.not.not.i, label %_ZN11CMainWindow14activeMdiChildEv.exit, label %7

7:                                                ; preds = %1
  %8 = tail call noundef ptr @_ZNK13QMdiSubWindow6widgetEv(ptr noundef nonnull align 8 dereferenceable(40) %6)
  %9 = load ptr, ptr %8, align 8, !tbaa !46
  %10 = getelementptr inbounds nuw i8, ptr %9, i64 8
  %11 = load ptr, ptr %10, align 8
  %12 = tail call noundef ptr %11(ptr noundef nonnull align 8 dereferenceable(16) %8, ptr noundef nonnull @.str.34)
  %.not8.i = icmp eq ptr %12, null
  %13 = tail call noundef ptr @_ZNK13QMdiSubWindow6widgetEv(ptr noundef nonnull align 8 dereferenceable(40) %6)
  br i1 %.not8.i, label %16, label %14

14:                                               ; preds = %7
  %15 = tail call noundef ptr @_ZNK11QMetaObject4castEPK7QObject(ptr noundef nonnull align 8 dereferenceable(56) @_ZN8MdiChild16staticMetaObjectE, ptr noundef %13)
  br label %_ZN11CMainWindow14activeMdiChildEv.exit

16:                                               ; preds = %7
  %17 = tail call noundef ptr @_ZNK11QMetaObject4castEPK7QObject(ptr noundef nonnull align 8 dereferenceable(56) @_ZN11ImageViewer16staticMetaObjectE, ptr noundef %13)
  %18 = getelementptr inbounds nuw i8, ptr %17, i64 40
  %19 = load ptr, ptr %18, align 8, !tbaa !220
  br label %_ZN11CMainWindow14activeMdiChildEv.exit

_ZN11CMainWindow14activeMdiChildEv.exit:          ; preds = %1, %14, %16
  %spec.select.i = phi ptr [ %15, %14 ], [ %19, %16 ], [ null, %1 ]
  %20 = tail call noundef i32 @_ZN12CFrmSettings12showSettingsEP8MdiChild(ptr noundef nonnull align 8 dereferenceable(152) %3, ptr noundef %spec.select.i)
  ret void
}